target datalayout = "e-m:e-p270:32:32-p271:32:32-p272:64:64-i64:64-i128:128-f80:128-n8:16:32:64-S128"
target triple = "x86_64-pc-linux-gnu"

@_ZTIN6casadi20SharedObjectInternalE = linkonce_odr constant { ptr, ptr } { ptr getelementptr inbounds (ptr, ptr @_ZTVN10__cxxabiv117__class_type_infoE, i64 2), ptr @_ZTSN6casadi20SharedObjectInternalE }, comdat, align 8
@_ZTIN6casadi14LinsolInternalE = external constant ptr

; Function Attrs: mustprogress nounwind uwtable
define noundef zeroext i1 @_ZN6casadi6Linsol9test_castEPKNS_20SharedObjectInternalE(ptr noundef %0) #5 align 2 {
  %2 = alloca ptr, align 8
  store ptr %0, ptr %2, align 8
  %3 = load ptr, ptr %2, align 8
  %4 = icmp eq ptr %3, null
  br i1 %4, label %7, label %5

5:                                                ; preds = %1
  %6 = call ptr @__dynamic_cast(ptr %3, ptr @_ZTIN6casadi20SharedObjectInternalE, ptr @_ZTIN6casadi14LinsolInternalE, i64 0) #3
  br label %8

7:                                                ; preds = %1
  br label %8

8:                                                ; preds = %7, %5
  %9 = phi ptr [ %6, %5 ], [ null, %7 ]
  %10 = icmp ne ptr %9, null
  ret i1 %10
}